target datalayout = "e-m:e-p270:32:32-p271:32:32-p272:64:64-i64:64-i128:128-f80:128-n8:16:32:64-S128"
target triple = "x86_64-pc-linux-gnu"

%struct.SDL_BlitInfo = type { ptr, ptr, i32, i32, i32, i32, ptr, ptr, i32, i32, i32, i32, ptr, ptr, ptr, ptr, ptr, ptr, i32, i32, i8, i8, i8, i8 }
%struct.SDL_PixelFormatDetails = type { i32, i8, i8, [2 x i8], i32, i32, i32, i32, i8, i8, i8, i8, i8, i8, i8, i8 }

; Function Attrs: nounwind uwtable
define internal void @Blit8888to8888PixelAlpha(ptr noundef %0) #0 {
  %2 = alloca ptr, align 8
  %3 = alloca i32, align 4
  %4 = alloca i32, align 4
  %5 = alloca ptr, align 8
  %6 = alloca i32, align 4
  %7 = alloca ptr, align 8
  %8 = alloca i32, align 4
  %9 = alloca ptr, align 8
  %10 = alloca i32, align 4
  %11 = alloca i32, align 4
  %12 = alloca i32, align 4
  %13 = alloca i32, align 4
  %14 = alloca i32, align 4
  %15 = alloca i64, align 8
  %16 = alloca i64, align 8
  store ptr %0, ptr %2, align 8
  call void @llvm.lifetime.start.p0(i64 4, ptr %3) #3
  %17 = load ptr, ptr %2, align 8
  %18 = getelementptr inbounds nuw %struct.SDL_BlitInfo, ptr %17, i32 0, i32 8
  %19 = load i32, ptr %18, align 8
  store i32 %19, ptr %3, align 4
  call void @llvm.lifetime.start.p0(i64 4, ptr %4) #3
  %20 = load ptr, ptr %2, align 8
  %21 = getelementptr inbounds nuw %struct.SDL_BlitInfo, ptr %20, i32 0, i32 9
  %22 = load i32, ptr %21, align 4
  store i32 %22, ptr %4, align 4
  call void @llvm.lifetime.start.p0(i64 8, ptr %5) #3
  %23 = load ptr, ptr %2, align 8
  %24 = getelementptr inbounds nuw %struct.SDL_BlitInfo, ptr %23, i32 0, i32 1
  %25 = load ptr, ptr %24, align 8
  store ptr %25, ptr %5, align 8
  call void @llvm.lifetime.start.p0(i64 4, ptr %6) #3
  %26 = load ptr, ptr %2, align 8
  %27 = getelementptr inbounds nuw %struct.SDL_BlitInfo, ptr %26, i32 0, i32 5
  %28 = load i32, ptr %27, align 4
  store i32 %28, ptr %6, align 4
  call void @llvm.lifetime.start.p0(i64 8, ptr %7) #3
  %29 = load ptr, ptr %2, align 8
  %30 = getelementptr inbounds nuw %struct.SDL_BlitInfo, ptr %29, i32 0, i32 7
  %31 = load ptr, ptr %30, align 8
  store ptr %31, ptr %7, align 8
  call void @llvm.lifetime.start.p0(i64 4, ptr %8) #3
  %32 = load ptr, ptr %2, align 8
  %33 = getelementptr inbounds nuw %struct.SDL_BlitInfo, ptr %32, i32 0, i32 11
  %34 = load i32, ptr %33, align 4
  store i32 %34, ptr %8, align 4
  call void @llvm.lifetime.start.p0(i64 8, ptr %9) #3
  %35 = load ptr, ptr %2, align 8
  %36 = getelementptr inbounds nuw %struct.SDL_BlitInfo, ptr %35, i32 0, i32 12
  %37 = load ptr, ptr %36, align 8
  store ptr %37, ptr %9, align 8
  br label %38

38:                                               ; preds = %119, %1
  %39 = load i32, ptr %4, align 4
  %40 = add nsw i32 %39, -1
  store i32 %40, ptr %4, align 4
  %41 = icmp ne i32 %39, 0
  br i1 %41, label %42, label %128

42:                                               ; preds = %38
  call void @llvm.lifetime.start.p0(i64 4, ptr %10) #3
  store i32 0, ptr %10, align 4
  br label %43

43:                                               ; preds = %116, %42
  %44 = load i32, ptr %10, align 4
  %45 = load i32, ptr %3, align 4
  %46 = icmp slt i32 %44, %45
  br i1 %46, label %47, label %119

47:                                               ; preds = %43
  call void @llvm.lifetime.start.p0(i64 4, ptr %11) #3
  %48 = load ptr, ptr %5, align 8
  %49 = load i32, ptr %48, align 4
  store i32 %49, ptr %11, align 4
  call void @llvm.lifetime.start.p0(i64 4, ptr %12) #3
  %50 = load ptr, ptr %7, align 8
  %51 = load i32, ptr %50, align 4
  store i32 %51, ptr %12, align 4
  br label %52

52:                                               ; preds = %47
  call void @llvm.lifetime.start.p0(i64 4, ptr %13) #3
  %53 = load i32, ptr %11, align 4
  %54 = load ptr, ptr %9, align 8
  %55 = getelementptr inbounds nuw %struct.SDL_PixelFormatDetails, ptr %54, i32 0, i32 15
  %56 = load i8, ptr %55, align 1
  %57 = zext i8 %56 to i32
  %58 = lshr i32 %53, %57
  %59 = and i32 %58, 255
  store i32 %59, ptr %13, align 4
  call void @llvm.lifetime.start.p0(i64 4, ptr %14) #3
  %60 = load i32, ptr %11, align 4
  %61 = load ptr, ptr %9, align 8
  %62 = getelementptr inbounds nuw %struct.SDL_PixelFormatDetails, ptr %61, i32 0, i32 7
  %63 = load i32, ptr %62, align 4
  %64 = or i32 %60, %63
  store i32 %64, ptr %14, align 4
  br label %65

65:                                               ; preds = %52
  call void @llvm.lifetime.start.p0(i64 8, ptr %15) #3
  %66 = load i32, ptr %14, align 4
  %67 = zext i32 %66 to i64
  store i64 %67, ptr %15, align 8
  %68 = load i64, ptr %15, align 8
  %69 = load i64, ptr %15, align 8
  %70 = shl i64 %69, 24
  %71 = or i64 %68, %70
  %72 = and i64 %71, 71777214294589695
  store i64 %72, ptr %15, align 8
  call void @llvm.lifetime.start.p0(i64 8, ptr %16) #3
  %73 = load i32, ptr %12, align 4
  %74 = zext i32 %73 to i64
  store i64 %74, ptr %16, align 8
  %75 = load i64, ptr %16, align 8
  %76 = load i64, ptr %16, align 8
  %77 = shl i64 %76, 24
  %78 = or i64 %75, %77
  %79 = and i64 %78, 71777214294589695
  store i64 %79, ptr %16, align 8
  %80 = load i64, ptr %15, align 8
  %81 = load i64, ptr %16, align 8
  %82 = sub i64 %80, %81
  %83 = load i32, ptr %13, align 4
  %84 = zext i32 %83 to i64
  %85 = mul i64 %82, %84
  %86 = load i64, ptr %16, align 8
  %87 = shl i64 %86, 8
  %88 = add i64 %85, %87
  %89 = load i64, ptr %16, align 8
  %90 = sub i64 %88, %89
  store i64 %90, ptr %16, align 8
  %91 = load i64, ptr %16, align 8
  %92 = add i64 %91, 281479271743489
  store i64 %92, ptr %16, align 8
  %93 = load i64, ptr %16, align 8
  %94 = lshr i64 %93, 8
  %95 = and i64 %94, 71777214294589695
  %96 = load i64, ptr %16, align 8
  %97 = add i64 %96, %95
  store i64 %97, ptr %16, align 8
  %98 = load i64, ptr %16, align 8
  %99 = and i64 %98, -71777214294589696
  store i64 %99, ptr %16, align 8
  %100 = load i64, ptr %16, align 8
  %101 = lshr i64 %100, 8
  %102 = load i64, ptr %16, align 8
  %103 = lshr i64 %102, 32
  %104 = or i64 %101, %103
  %105 = trunc i64 %104 to i32
  store i32 %105, ptr %12, align 4
  call void @llvm.lifetime.end.p0(i64 8, ptr %16) #3
  call void @llvm.lifetime.end.p0(i64 8, ptr %15) #3
  br label %106

106:                                              ; preds = %65
  br label %107

107:                                              ; preds = %106
  call void @llvm.lifetime.end.p0(i64 4, ptr %14) #3
  call void @llvm.lifetime.end.p0(i64 4, ptr %13) #3
  br label %108

108:                                              ; preds = %107
  br label %109

109:                                              ; preds = %108
  %110 = load i32, ptr %12, align 4
  %111 = load ptr, ptr %7, align 8
  store i32 %110, ptr %111, align 4
  %112 = load ptr, ptr %5, align 8
  %113 = getelementptr inbounds i8, ptr %112, i64 4
  store ptr %113, ptr %5, align 8
  %114 = load ptr, ptr %7, align 8
  %115 = getelementptr inbounds i8, ptr %114, i64 4
  store ptr %115, ptr %7, align 8
  call void @llvm.lifetime.end.p0(i64 4, ptr %12) #3
  call void @llvm.lifetime.end.p0(i64 4, ptr %11) #3
  br label %116

116:                                              ; preds = %109
  %117 = load i32, ptr %10, align 4
  %118 = add nsw i32 %117, 1
  store i32 %118, ptr %10, align 4
  br label %43, !llvm.loop !12

119:                                              ; preds = %43
  %120 = load i32, ptr %6, align 4
  %121 = load ptr, ptr %5, align 8
  %122 = sext i32 %120 to i64
  %123 = getelementptr inbounds i8, ptr %121, i64 %122
  store ptr %123, ptr %5, align 8
  %124 = load i32, ptr %8, align 4
  %125 = load ptr, ptr %7, align 8
  %126 = sext i32 %124 to i64
  %127 = getelementptr inbounds i8, ptr %125, i64 %126
  store ptr %127, ptr %7, align 8
  call void @llvm.lifetime.end.p0(i64 4, ptr %10) #3
  br label %38, !llvm.loop !13

128:                                              ; preds = %38
  call void @llvm.lifetime.end.p0(i64 8, ptr %9) #3
  call void @llvm.lifetime.end.p0(i64 4, ptr %8) #3
  call void @llvm.lifetime.end.p0(i64 8, ptr %7) #3
  call void @llvm.lifetime.end.p0(i64 4, ptr %6) #3
  call void @llvm.lifetime.end.p0(i64 8, ptr %5) #3
  call void @llvm.lifetime.end.p0(i64 4, ptr %4) #3
  call void @llvm.lifetime.end.p0(i64 4, ptr %3) #3
  ret void
}