; Function Attrs: nofree norecurse nosync nounwind memory(readwrite, inaccessiblemem: none) uwtable
define internal void @Blit8888to8888PixelAlpha(ptr noundef readonly captures(none) %0) #2 {
  %2 = getelementptr inbounds nuw i8, ptr %0, i64 48
  %3 = load i32, ptr %2, align 8
  %4 = getelementptr inbounds nuw i8, ptr %0, i64 52
  %5 = load i32, ptr %4, align 4
  %.not49 = icmp eq i32 %5, 0
  br i1 %.not49, label %._crit_edge52, label %.preheader.lr.ph

.preheader.lr.ph:                                 ; preds = %1
  %6 = getelementptr inbounds nuw i8, ptr %0, i64 64
  %7 = load ptr, ptr %6, align 8
  %8 = getelementptr inbounds nuw i8, ptr %0, i64 60
  %9 = load i32, ptr %8, align 4
  %10 = getelementptr inbounds nuw i8, ptr %0, i64 28
  %11 = load i32, ptr %10, align 4
  %12 = icmp sgt i32 %3, 0
  %13 = getelementptr inbounds nuw i8, ptr %7, i64 31
  %14 = getelementptr inbounds nuw i8, ptr %7, i64 20
  %15 = sext i32 %11 to i64
  %16 = sext i32 %9 to i64
  br i1 %12, label %.preheader.us.preheader, label %._crit_edge52

.preheader.us.preheader:                          ; preds = %.preheader.lr.ph
  %17 = getelementptr inbounds nuw i8, ptr %0, i64 8
  %18 = load ptr, ptr %17, align 8
  %19 = getelementptr inbounds nuw i8, ptr %0, i64 40
  %20 = load ptr, ptr %19, align 8
  br label %.preheader.us

.preheader.us:                                    ; preds = %.preheader.us.preheader, %._crit_edge.us
  %.in = phi i32 [ %21, %._crit_edge.us ], [ %5, %.preheader.us.preheader ]
  %.04151.us = phi ptr [ %55, %._crit_edge.us ], [ %18, %.preheader.us.preheader ]
  %.04250.us = phi ptr [ %56, %._crit_edge.us ], [ %20, %.preheader.us.preheader ]
  %21 = add nsw i32 %.in, -1
  br label %22

22:                                               ; preds = %.preheader.us, %22
  %.147.us = phi ptr [ %.04151.us, %.preheader.us ], [ %52, %22 ]
  %.14346.us = phi ptr [ %.04250.us, %.preheader.us ], [ %53, %22 ]
  %.04445.us = phi i32 [ 0, %.preheader.us ], [ %54, %22 ]
  %23 = load i32, ptr %.147.us, align 4
  %24 = load i32, ptr %.14346.us, align 4
  %25 = load i8, ptr %13, align 1
  %26 = zext nneg i8 %25 to i32
  %27 = lshr i32 %23, %26
  %28 = and i32 %27, 255
  %29 = load i32, ptr %14, align 4
  %30 = or i32 %29, %23
  %31 = zext i32 %30 to i64
  %32 = shl nuw nsw i64 %31, 24
  %33 = or i64 %32, %31
  %34 = and i64 %33, 71777214294589695
  %35 = zext i32 %24 to i64
  %36 = shl nuw nsw i64 %35, 24
  %37 = or i64 %36, %35
  %38 = and i64 %37, 71777214294589695
  %39 = sub nsw i64 %34, %38
  %40 = zext nneg i32 %28 to i64
  %41 = mul i64 %39, %40
  %reass.sub = mul nuw i64 %38, 255
  %42 = add nuw i64 %reass.sub, 281479271743489
  %43 = add i64 %42, %41
  %44 = lshr i64 %43, 8
  %45 = and i64 %44, 71777214294589695
  %46 = add i64 %45, %43
  %47 = and i64 %46, -71777214294589696
  %48 = lshr exact i64 %47, 8
  %49 = lshr i64 %47, 32
  %50 = or disjoint i64 %48, %49
  %51 = trunc i64 %50 to i32
  store i32 %51, ptr %.14346.us, align 4
  %52 = getelementptr inbounds nuw i8, ptr %.147.us, i64 4
  %53 = getelementptr inbounds nuw i8, ptr %.14346.us, i64 4
  %54 = add nuw nsw i32 %.04445.us, 1
  %exitcond.not = icmp eq i32 %54, %3
  br i1 %exitcond.not, label %._crit_edge.us, label %22, !llvm.loop !12

._crit_edge.us:                                   ; preds = %22
  %55 = getelementptr inbounds i8, ptr %52, i64 %15
  %56 = getelementptr inbounds i8, ptr %53, i64 %16
  %.not.us = icmp eq i32 %21, 0
  br i1 %.not.us, label %._crit_edge52, label %.preheader.us, !llvm.loop !13

._crit_edge52:                                    ; preds = %._crit_edge.us, %.preheader.lr.ph, %1
  ret void
}